; ModuleID = '19/799.c'
source_filename = "19/799.c"
target datalayout = "e-m:e-p270:32:32-p271:32:32-p272:64:64-i64:64-f80:128-n8:16:32:64-S128"
target triple = "x86_64-pc-linux-gnu"

@.str = private unnamed_addr constant [3 x i8] c"%s\00", align 1
@.str.1 = private unnamed_addr constant [3 x i8] c"%c\00", align 1

; Function Attrs: noinline nounwind uwtable
define dso_local void @main() #0 {
  %1 = alloca i8*, align 8
  %2 = alloca i8*, align 8
  %3 = alloca i8*, align 8
  %4 = alloca i8*, align 8
  %5 = alloca i8*, align 8
  %6 = alloca i8, align 1
  %7 = alloca i8*, align 8
  %8 = call noalias i8* @malloc(i64 101) #4
  store i8* %8, i8** %1, align 8
  %9 = call noalias i8* @malloc(i64 101) #4
  store i8* %9, i8** %2, align 8
  %10 = call noalias i8* @malloc(i64 101) #4
  store i8* %10, i8** %3, align 8
  %11 = call noalias i8* @malloc(i64 101) #4
  store i8* %11, i8** %5, align 8
  %12 = load i8*, i8** %1, align 8
  %13 = call i32 (i8*, ...) bitcast (i32 (...)* @gets to i32 (i8*, ...)*)(i8* %12)
  %14 = load i8*, i8** %2, align 8
  %15 = call i32 (i8*, ...) bitcast (i32 (...)* @gets to i32 (i8*, ...)*)(i8* %14)
  %16 = load i8*, i8** %3, align 8
  %17 = call i32 (i8*, ...) bitcast (i32 (...)* @gets to i32 (i8*, ...)*)(i8* %16)
  %18 = load i8*, i8** %1, align 8
  store i8* %18, i8** %4, align 8
  %19 = load i8*, i8** %1, align 8
  %20 = load i8*, i8** %1, align 8
  %21 = call i64 @strlen(i8* %20) #5
  %22 = getelementptr inbounds i8, i8* %19, i64 %21
  store i8* %22, i8** %7, align 8
  br label %23

23:                                               ; preds = %47, %0
  %24 = load i8*, i8** %4, align 8
  %25 = load i8*, i8** %5, align 8
  %26 = call i32 (i8*, i8*, ...) @__isoc99_sscanf(i8* %24, i8* getelementptr inbounds ([3 x i8], [3 x i8]* @.str, i64 0, i64 0), i8* %25) #4
  %27 = load i8*, i8** %5, align 8
  %28 = load i8*, i8** %2, align 8
  %29 = call i32 @strcmp(i8* %27, i8* %28) #5
  %30 = icmp eq i32 %29, 0
  br i1 %30, label %31, label %34

31:                                               ; preds = %23
  %32 = load i8*, i8** %3, align 8
  %33 = call i32 (i8*, ...) @printf(i8* getelementptr inbounds ([3 x i8], [3 x i8]* @.str, i64 0, i64 0), i8* %32)
  br label %37

34:                                               ; preds = %23
  %35 = load i8*, i8** %5, align 8
  %36 = call i32 (i8*, ...) @printf(i8* getelementptr inbounds ([3 x i8], [3 x i8]* @.str, i64 0, i64 0), i8* %35)
  br label %37

37:                                               ; preds = %34, %31
  %38 = load i8*, i8** %4, align 8
  %39 = load i8*, i8** %5, align 8
  %40 = call i64 @strlen(i8* %39) #5
  %41 = getelementptr inbounds i8, i8* %38, i64 %40
  %42 = getelementptr inbounds i8, i8* %41, i64 1
  store i8* %42, i8** %4, align 8
  %43 = load i8*, i8** %4, align 8
  %44 = load i8*, i8** %7, align 8
  %45 = icmp uge i8* %43, %44
  br i1 %45, label %46, label %47

46:                                               ; preds = %37
  br label %49

47:                                               ; preds = %37
  %48 = call i32 (i8*, ...) @printf(i8* getelementptr inbounds ([3 x i8], [3 x i8]* @.str.1, i64 0, i64 0), i32 32)
  br label %23

49:                                               ; preds = %46
  ret void
}

; Function Attrs: nounwind
declare dso_local noalias i8* @malloc(i64) #1

declare dso_local i32 @gets(...) #2

; Function Attrs: nounwind readonly
declare dso_local i64 @strlen(i8*) #3

; Function Attrs: nounwind
declare dso_local i32 @__isoc99_sscanf(i8*, i8*, ...) #1

; Function Attrs: nounwind readonly
declare dso_local i32 @strcmp(i8*, i8*) #3

declare dso_local i32 @printf(i8*, ...) #2


!llvm.module.flags = !{!0}
!llvm.ident = !{!1}

!0 = !{i32 1, !"wchar_size", i32 4}
!1 = !{!"clang version 10.0.0-4ubuntu1 "}
