; ModuleID = 'source-C-CXX/18/799.c'
source_filename = "source-C-CXX/18/799.c"
target datalayout = "e-m:e-p270:32:32-p271:32:32-p272:64:64-i64:64-f80:128-n8:16:32:64-S128"
target triple = "x86_64-pc-linux-gnu"

@.str = private unnamed_addr constant [3 x i8] c"%s\00", align 1

; Function Attrs: nounwind sspstrong uwtable
define dso_local void @main() local_unnamed_addr #0 {
  %1 = tail call noalias align 16 dereferenceable_or_null(101) i8* @malloc(i64 101) #6
  %2 = tail call noalias align 16 dereferenceable_or_null(101) i8* @malloc(i64 101) #6
  %3 = tail call noalias align 16 dereferenceable_or_null(101) i8* @malloc(i64 101) #6
  %4 = tail call noalias align 16 dereferenceable_or_null(101) i8* @malloc(i64 101) #6
  %5 = tail call i32 (i8*, ...) bitcast (i32 (...)* @gets to i32 (i8*, ...)*)(i8* %1) #6
  %6 = tail call i32 (i8*, ...) bitcast (i32 (...)* @gets to i32 (i8*, ...)*)(i8* %2) #6
  %7 = tail call i32 (i8*, ...) bitcast (i32 (...)* @gets to i32 (i8*, ...)*)(i8* %3) #6
  %8 = tail call i64 @strlen(i8* noundef nonnull dereferenceable(1) %1) #7
  %9 = getelementptr inbounds i8, i8* %1, i64 %8
  %10 = tail call i32 (i8*, i8*, ...) @__isoc99_sscanf(i8* %1, i8* getelementptr inbounds ([3 x i8], [3 x i8]* @.str, i64 0, i64 0), i8* %4) #6
  %11 = tail call i32 @strcmp(i8* noundef nonnull dereferenceable(1) %4, i8* noundef nonnull dereferenceable(1) %2) #7
  %12 = icmp eq i32 %11, 0
  %13 = select i1 %12, i8* %3, i8* %4
  %14 = tail call i32 (i8*, ...) @printf(i8* nonnull dereferenceable(1) getelementptr inbounds ([3 x i8], [3 x i8]* @.str, i64 0, i64 0), i8* %13)
  %15 = tail call i64 @strlen(i8* noundef nonnull dereferenceable(1) %4) #7
  %16 = add nsw i64 %15, 1
  %17 = icmp slt i64 %16, %8
  br i1 %17, label %18, label %32

18:                                               ; preds = %0
  %19 = getelementptr inbounds i8, i8* %1, i64 %16
  br label %20

20:                                               ; preds = %18, %20
  %21 = phi i8* [ %19, %18 ], [ %30, %20 ]
  %22 = tail call i32 @putchar(i32 32)
  %23 = tail call i32 (i8*, i8*, ...) @__isoc99_sscanf(i8* %21, i8* getelementptr inbounds ([3 x i8], [3 x i8]* @.str, i64 0, i64 0), i8* %4) #6
  %24 = tail call i32 @strcmp(i8* noundef nonnull dereferenceable(1) %4, i8* noundef nonnull dereferenceable(1) %2) #7
  %25 = icmp eq i32 %24, 0
  %26 = select i1 %25, i8* %3, i8* %4
  %27 = tail call i32 (i8*, ...) @printf(i8* nonnull dereferenceable(1) getelementptr inbounds ([3 x i8], [3 x i8]* @.str, i64 0, i64 0), i8* %26)
  %28 = tail call i64 @strlen(i8* noundef nonnull dereferenceable(1) %4) #7
  %29 = add nsw i64 %28, 1
  %30 = getelementptr inbounds i8, i8* %21, i64 %29
  %31 = icmp ult i8* %30, %9
  br i1 %31, label %20, label %32

32:                                               ; preds = %20, %0
  ret void
}

; Function Attrs: inaccessiblememonly mustprogress nofree nounwind willreturn
declare noalias noundef align 16 i8* @malloc(i64 noundef) local_unnamed_addr #1

declare i32 @gets(...) local_unnamed_addr #2

; Function Attrs: argmemonly mustprogress nofree nounwind readonly willreturn
declare i64 @strlen(i8* nocapture) local_unnamed_addr #3

; Function Attrs: nofree nounwind
declare noundef i32 @__isoc99_sscanf(i8* nocapture noundef readonly, i8* nocapture noundef readonly, ...) local_unnamed_addr #4

; Function Attrs: argmemonly mustprogress nofree nounwind readonly willreturn
declare i32 @strcmp(i8* nocapture, i8* nocapture) local_unnamed_addr #3

; Function Attrs: nofree nounwind
declare noundef i32 @printf(i8* nocapture noundef readonly, ...) local_unnamed_addr #4

; Function Attrs: nofree nounwind
declare noundef i32 @putchar(i32 noundef) local_unnamed_addr #5


!llvm.module.flags = !{!0, !1, !2, !3}
!llvm.ident = !{!4}

!0 = !{i32 1, !"wchar_size", i32 4}
!1 = !{i32 7, !"PIC Level", i32 2}
!2 = !{i32 7, !"PIE Level", i32 2}
!3 = !{i32 7, !"uwtable", i32 1}
!4 = !{!"clang version 13.0.0"}
